; Function Attrs: mustprogress nounwind uwtable
define hidden void @_ZN6hermes3hbc7HBCISel16registerLongJumpEjPNS_10BasicBlockE(ptr noundef nonnull align 8 dereferenceable(392) %this, i32 noundef %loc, ptr noundef %target) local_unnamed_addr #0 align 2 {
entry:
  %relocations_ = getelementptr inbounds i8, ptr %this, i64 88
  %Size.i.i = getelementptr inbounds i8, ptr %this, i64 96
  %0 = load i32, ptr %Size.i.i, align 8
  %Capacity.i.i = getelementptr inbounds i8, ptr %this, i64 100
  %1 = load i32, ptr %Capacity.i.i, align 4
  %cmp.not.i = icmp ult i32 %0, %1
  br i1 %cmp.not.i, label %_ZN4llvh23SmallVectorTemplateBaseIN6hermes3hbc7HBCISel10RelocationELb1EE9push_backERKS4_.exit, label %if.then.i

if.then.i:                                        ; preds = %entry
  %add.ptr.i.i.i.i = getelementptr inbounds i8, ptr %this, i64 104
  tail call void @_ZN4llvh15SmallVectorBase8grow_podEPvmm(ptr noundef nonnull align 8 dereferenceable(16) %relocations_, ptr noundef nonnull %add.ptr.i.i.i.i, i64 noundef 0, i64 noundef 16) #19
  %.pre.i = load i32, ptr %Size.i.i, align 8
  br label %_ZN4llvh23SmallVectorTemplateBaseIN6hermes3hbc7HBCISel10RelocationELb1EE9push_backERKS4_.exit

_ZN4llvh23SmallVectorTemplateBaseIN6hermes3hbc7HBCISel10RelocationELb1EE9push_backERKS4_.exit: ; preds = %entry, %if.then.i
  %2 = phi i32 [ %.pre.i, %if.then.i ], [ %0, %entry ]
  %3 = icmp eq ptr %target, null
  %add.ptr = getelementptr inbounds i8, ptr %target, i64 16
  %spec.select = select i1 %3, ptr null, ptr %add.ptr
  %4 = load ptr, ptr %relocations_, align 8
  %conv.i3.i = zext i32 %2 to i64
  %add.ptr.i.i = getelementptr inbounds %"struct.hermes::hbc::HBCISel::Relocation", ptr %4, i64 %conv.i3.i
  store i32 %loc, ptr %add.ptr.i.i, align 1
  %ref.tmp.sroa.2.0.add.ptr.i.i.sroa_idx = getelementptr inbounds i8, ptr %add.ptr.i.i, i64 4
  store i32 1, ptr %ref.tmp.sroa.2.0.add.ptr.i.i.sroa_idx, align 1
  %ref.tmp.sroa.3.0.add.ptr.i.i.sroa_idx = getelementptr inbounds i8, ptr %add.ptr.i.i, i64 8
  store ptr %spec.select, ptr %ref.tmp.sroa.3.0.add.ptr.i.i.sroa_idx, align 1
  %5 = load i32, ptr %Size.i.i, align 8
  %add.i = add i32 %5, 1
  store i32 %add.i, ptr %Size.i.i, align 8
  ret void
}